target datalayout = "e-m:e-p270:32:32-p271:32:32-p272:64:64-i64:64-i128:128-f80:128-n8:16:32:64-S128"
target triple = "x86_64-pc-linux-gnu"

%struct.GL_ShaderContext = type { ptr, ptr, ptr, ptr, ptr, ptr, ptr, ptr, ptr, ptr, ptr, ptr, ptr, ptr, ptr, ptr, i8, [11 x %struct.GL_ShaderData], [11 x ptr] }
%struct.GL_ShaderData = type { i32, i32, i32 }

@.str.23 = private unnamed_addr constant [11 x i8] c"texel_size\00", align 1
@.str.24 = private unnamed_addr constant [8 x i8] c"Yoffset\00", align 1
@.str.25 = private unnamed_addr constant [7 x i8] c"Rcoeff\00", align 1
@.str.26 = private unnamed_addr constant [7 x i8] c"Gcoeff\00", align 1
@.str.27 = private unnamed_addr constant [7 x i8] c"Bcoeff\00", align 1

; Function Attrs: nounwind uwtable
define hidden void @GL_SelectShader(ptr noundef %0, i32 noundef %1, ptr noundef %2) #0 {
  %4 = alloca ptr, align 8
  %5 = alloca i32, align 4
  %6 = alloca ptr, align 8
  %7 = alloca i32, align 4
  %8 = alloca i32, align 4
  store ptr %0, ptr %4, align 8
  store i32 %1, ptr %5, align 4
  store ptr %2, ptr %6, align 8
  call void @llvm.lifetime.start.p0(i64 4, ptr %7) #4
  call void @llvm.lifetime.start.p0(i64 4, ptr %8) #4
  %9 = load ptr, ptr %4, align 8
  %10 = getelementptr inbounds nuw %struct.GL_ShaderContext, ptr %9, i32 0, i32 17
  %11 = load i32, ptr %5, align 4
  %12 = sext i32 %11 to i64
  %13 = getelementptr inbounds [11 x %struct.GL_ShaderData], ptr %10, i64 0, i64 %12
  %14 = getelementptr inbounds nuw %struct.GL_ShaderData, ptr %13, i32 0, i32 0
  %15 = load i32, ptr %14, align 4
  store i32 %15, ptr %8, align 4
  %16 = load ptr, ptr %4, align 8
  %17 = getelementptr inbounds nuw %struct.GL_ShaderContext, ptr %16, i32 0, i32 15
  %18 = load ptr, ptr %17, align 8
  %19 = load i32, ptr %8, align 4
  call void %18(i32 noundef %19)
  %20 = load ptr, ptr %6, align 8
  %21 = icmp ne ptr %20, null
  br i1 %21, label %22, label %162

22:                                               ; preds = %3
  %23 = load ptr, ptr %6, align 8
  %24 = load ptr, ptr %4, align 8
  %25 = getelementptr inbounds nuw %struct.GL_ShaderContext, ptr %24, i32 0, i32 18
  %26 = load i32, ptr %5, align 4
  %27 = sext i32 %26 to i64
  %28 = getelementptr inbounds [11 x ptr], ptr %25, i64 0, i64 %27
  %29 = load ptr, ptr %28, align 8
  %30 = icmp ne ptr %23, %29
  br i1 %30, label %31, label %162

31:                                               ; preds = %22
  %32 = load i32, ptr %5, align 4
  %33 = icmp eq i32 %32, 4
  br i1 %33, label %37, label %34

34:                                               ; preds = %31
  %35 = load i32, ptr %5, align 4
  %36 = icmp eq i32 %35, 5
  br i1 %36, label %37, label %63

37:                                               ; preds = %34, %31
  %38 = load ptr, ptr %4, align 8
  %39 = getelementptr inbounds nuw %struct.GL_ShaderContext, ptr %38, i32 0, i32 8
  %40 = load ptr, ptr %39, align 8
  %41 = load i32, ptr %8, align 4
  %42 = call i32 %40(i32 noundef %41, ptr noundef @.str.23)
  store i32 %42, ptr %7, align 4
  %43 = load i32, ptr %7, align 4
  %44 = icmp sge i32 %43, 0
  br i1 %44, label %45, label %62

45:                                               ; preds = %37
  %46 = load ptr, ptr %4, align 8
  %47 = getelementptr inbounds nuw %struct.GL_ShaderContext, ptr %46, i32 0, i32 14
  %48 = load ptr, ptr %47, align 8
  %49 = load i32, ptr %7, align 4
  %50 = load ptr, ptr %6, align 8
  %51 = getelementptr inbounds float, ptr %50, i64 0
  %52 = load float, ptr %51, align 4
  %53 = load ptr, ptr %6, align 8
  %54 = getelementptr inbounds float, ptr %53, i64 1
  %55 = load float, ptr %54, align 4
  %56 = load ptr, ptr %6, align 8
  %57 = getelementptr inbounds float, ptr %56, i64 2
  %58 = load float, ptr %57, align 4
  %59 = load ptr, ptr %6, align 8
  %60 = getelementptr inbounds float, ptr %59, i64 3
  %61 = load float, ptr %60, align 4
  call void %48(i32 noundef %49, float noundef %52, float noundef %55, float noundef %58, float noundef %61)
  br label %62

62:                                               ; preds = %45, %37
  br label %63

63:                                               ; preds = %62, %34
  %64 = load i32, ptr %5, align 4
  %65 = icmp sge i32 %64, 6
  br i1 %65, label %66, label %155

66:                                               ; preds = %63
  %67 = load ptr, ptr %4, align 8
  %68 = getelementptr inbounds nuw %struct.GL_ShaderContext, ptr %67, i32 0, i32 8
  %69 = load ptr, ptr %68, align 8
  %70 = load i32, ptr %8, align 4
  %71 = call i32 %69(i32 noundef %70, ptr noundef @.str.24)
  store i32 %71, ptr %7, align 4
  %72 = load i32, ptr %7, align 4
  %73 = icmp sge i32 %72, 0
  br i1 %73, label %74, label %88

74:                                               ; preds = %66
  %75 = load ptr, ptr %4, align 8
  %76 = getelementptr inbounds nuw %struct.GL_ShaderContext, ptr %75, i32 0, i32 13
  %77 = load ptr, ptr %76, align 8
  %78 = load i32, ptr %7, align 4
  %79 = load ptr, ptr %6, align 8
  %80 = getelementptr inbounds float, ptr %79, i64 0
  %81 = load float, ptr %80, align 4
  %82 = load ptr, ptr %6, align 8
  %83 = getelementptr inbounds float, ptr %82, i64 1
  %84 = load float, ptr %83, align 4
  %85 = load ptr, ptr %6, align 8
  %86 = getelementptr inbounds float, ptr %85, i64 2
  %87 = load float, ptr %86, align 4
  call void %77(i32 noundef %78, float noundef %81, float noundef %84, float noundef %87)
  br label %88

88:                                               ; preds = %74, %66
  %89 = load ptr, ptr %4, align 8
  %90 = getelementptr inbounds nuw %struct.GL_ShaderContext, ptr %89, i32 0, i32 8
  %91 = load ptr, ptr %90, align 8
  %92 = load i32, ptr %8, align 4
  %93 = call i32 %91(i32 noundef %92, ptr noundef @.str.25)
  store i32 %93, ptr %7, align 4
  %94 = load i32, ptr %7, align 4
  %95 = icmp sge i32 %94, 0
  br i1 %95, label %96, label %110

96:                                               ; preds = %88
  %97 = load ptr, ptr %4, align 8
  %98 = getelementptr inbounds nuw %struct.GL_ShaderContext, ptr %97, i32 0, i32 13
  %99 = load ptr, ptr %98, align 8
  %100 = load i32, ptr %7, align 4
  %101 = load ptr, ptr %6, align 8
  %102 = getelementptr inbounds float, ptr %101, i64 4
  %103 = load float, ptr %102, align 4
  %104 = load ptr, ptr %6, align 8
  %105 = getelementptr inbounds float, ptr %104, i64 5
  %106 = load float, ptr %105, align 4
  %107 = load ptr, ptr %6, align 8
  %108 = getelementptr inbounds float, ptr %107, i64 6
  %109 = load float, ptr %108, align 4
  call void %99(i32 noundef %100, float noundef %103, float noundef %106, float noundef %109)
  br label %110

110:                                              ; preds = %96, %88
  %111 = load ptr, ptr %4, align 8
  %112 = getelementptr inbounds nuw %struct.GL_ShaderContext, ptr %111, i32 0, i32 8
  %113 = load ptr, ptr %112, align 8
  %114 = load i32, ptr %8, align 4
  %115 = call i32 %113(i32 noundef %114, ptr noundef @.str.26)
  store i32 %115, ptr %7, align 4
  %116 = load i32, ptr %7, align 4
  %117 = icmp sge i32 %116, 0
  br i1 %117, label %118, label %132

118:                                              ; preds = %110
  %119 = load ptr, ptr %4, align 8
  %120 = getelementptr inbounds nuw %struct.GL_ShaderContext, ptr %119, i32 0, i32 13
  %121 = load ptr, ptr %120, align 8
  %122 = load i32, ptr %7, align 4
  %123 = load ptr, ptr %6, align 8
  %124 = getelementptr inbounds float, ptr %123, i64 8
  %125 = load float, ptr %124, align 4
  %126 = load ptr, ptr %6, align 8
  %127 = getelementptr inbounds float, ptr %126, i64 9
  %128 = load float, ptr %127, align 4
  %129 = load ptr, ptr %6, align 8
  %130 = getelementptr inbounds float, ptr %129, i64 10
  %131 = load float, ptr %130, align 4
  call void %121(i32 noundef %122, float noundef %125, float noundef %128, float noundef %131)
  br label %132

132:                                              ; preds = %118, %110
  %133 = load ptr, ptr %4, align 8
  %134 = getelementptr inbounds nuw %struct.GL_ShaderContext, ptr %133, i32 0, i32 8
  %135 = load ptr, ptr %134, align 8
  %136 = load i32, ptr %8, align 4
  %137 = call i32 %135(i32 noundef %136, ptr noundef @.str.27)
  store i32 %137, ptr %7, align 4
  %138 = load i32, ptr %7, align 4
  %139 = icmp sge i32 %138, 0
  br i1 %139, label %140, label %154

140:                                              ; preds = %132
  %141 = load ptr, ptr %4, align 8
  %142 = getelementptr inbounds nuw %struct.GL_ShaderContext, ptr %141, i32 0, i32 13
  %143 = load ptr, ptr %142, align 8
  %144 = load i32, ptr %7, align 4
  %145 = load ptr, ptr %6, align 8
  %146 = getelementptr inbounds float, ptr %145, i64 12
  %147 = load float, ptr %146, align 4
  %148 = load ptr, ptr %6, align 8
  %149 = getelementptr inbounds float, ptr %148, i64 13
  %150 = load float, ptr %149, align 4
  %151 = load ptr, ptr %6, align 8
  %152 = getelementptr inbounds float, ptr %151, i64 14
  %153 = load float, ptr %152, align 4
  call void %143(i32 noundef %144, float noundef %147, float noundef %150, float noundef %153)
  br label %154

154:                                              ; preds = %140, %132
  br label %155

155:                                              ; preds = %154, %63
  %156 = load ptr, ptr %6, align 8
  %157 = load ptr, ptr %4, align 8
  %158 = getelementptr inbounds nuw %struct.GL_ShaderContext, ptr %157, i32 0, i32 18
  %159 = load i32, ptr %5, align 4
  %160 = sext i32 %159 to i64
  %161 = getelementptr inbounds [11 x ptr], ptr %158, i64 0, i64 %160
  store ptr %156, ptr %161, align 8
  br label %162

162:                                              ; preds = %155, %22, %3
  call void @llvm.lifetime.end.p0(i64 4, ptr %8) #4
  call void @llvm.lifetime.end.p0(i64 4, ptr %7) #4
  ret void
}