; Function Attrs: nounwind uwtable
define hidden void @GL_SelectShader(ptr noundef captures(none) %0, i32 noundef %1, ptr noundef %2) local_unnamed_addr #0 {
  %4 = getelementptr inbounds nuw i8, ptr %0, i64 132
  %5 = sext i32 %1 to i64
  %6 = getelementptr inbounds [11 x %struct.GL_ShaderData], ptr %4, i64 0, i64 %5
  %7 = load i32, ptr %6, align 4
  %8 = getelementptr inbounds nuw i8, ptr %0, i64 120
  %9 = load ptr, ptr %8, align 8
  tail call void %9(i32 noundef %7) #5
  %.not = icmp eq ptr %2, null
  br i1 %.not, label %85, label %10

10:                                               ; preds = %3
  %11 = getelementptr inbounds nuw i8, ptr %0, i64 264
  %12 = getelementptr inbounds [11 x ptr], ptr %11, i64 0, i64 %5
  %13 = load ptr, ptr %12, align 8
  %.not60 = icmp eq ptr %2, %13
  br i1 %.not60, label %85, label %14

14:                                               ; preds = %10
  %15 = and i32 %1, -2
  %or.cond = icmp eq i32 %15, 4
  br i1 %or.cond, label %16, label %31

16:                                               ; preds = %14
  %17 = getelementptr inbounds nuw i8, ptr %0, i64 64
  %18 = load ptr, ptr %17, align 8
  %19 = tail call i32 %18(i32 noundef %7, ptr noundef nonnull @.str.23) #5
  %20 = icmp sgt i32 %19, -1
  br i1 %20, label %21, label %.thread

21:                                               ; preds = %16
  %22 = getelementptr inbounds nuw i8, ptr %0, i64 112
  %23 = load ptr, ptr %22, align 8
  %24 = load float, ptr %2, align 4
  %25 = getelementptr inbounds nuw i8, ptr %2, i64 4
  %26 = load float, ptr %25, align 4
  %27 = getelementptr inbounds nuw i8, ptr %2, i64 8
  %28 = load float, ptr %27, align 4
  %29 = getelementptr inbounds nuw i8, ptr %2, i64 12
  %30 = load float, ptr %29, align 4
  tail call void %23(i32 noundef %19, float noundef %24, float noundef %26, float noundef %28, float noundef %30) #5
  br label %.thread

31:                                               ; preds = %14
  %32 = icmp sgt i32 %1, 5
  br i1 %32, label %33, label %.thread

33:                                               ; preds = %31
  %34 = getelementptr inbounds nuw i8, ptr %0, i64 64
  %35 = load ptr, ptr %34, align 8
  %36 = tail call i32 %35(i32 noundef %7, ptr noundef nonnull @.str.24) #5
  %37 = icmp sgt i32 %36, -1
  br i1 %37, label %38, label %46

38:                                               ; preds = %33
  %39 = getelementptr inbounds nuw i8, ptr %0, i64 104
  %40 = load ptr, ptr %39, align 8
  %41 = load float, ptr %2, align 4
  %42 = getelementptr inbounds nuw i8, ptr %2, i64 4
  %43 = load float, ptr %42, align 4
  %44 = getelementptr inbounds nuw i8, ptr %2, i64 8
  %45 = load float, ptr %44, align 4
  tail call void %40(i32 noundef %36, float noundef %41, float noundef %43, float noundef %45) #5
  br label %46

46:                                               ; preds = %38, %33
  %47 = load ptr, ptr %34, align 8
  %48 = tail call i32 %47(i32 noundef %7, ptr noundef nonnull @.str.25) #5
  %49 = icmp sgt i32 %48, -1
  br i1 %49, label %50, label %59

50:                                               ; preds = %46
  %51 = getelementptr inbounds nuw i8, ptr %0, i64 104
  %52 = load ptr, ptr %51, align 8
  %53 = getelementptr inbounds nuw i8, ptr %2, i64 16
  %54 = load float, ptr %53, align 4
  %55 = getelementptr inbounds nuw i8, ptr %2, i64 20
  %56 = load float, ptr %55, align 4
  %57 = getelementptr inbounds nuw i8, ptr %2, i64 24
  %58 = load float, ptr %57, align 4
  tail call void %52(i32 noundef %48, float noundef %54, float noundef %56, float noundef %58) #5
  br label %59

59:                                               ; preds = %50, %46
  %60 = load ptr, ptr %34, align 8
  %61 = tail call i32 %60(i32 noundef %7, ptr noundef nonnull @.str.26) #5
  %62 = icmp sgt i32 %61, -1
  br i1 %62, label %63, label %72

63:                                               ; preds = %59
  %64 = getelementptr inbounds nuw i8, ptr %0, i64 104
  %65 = load ptr, ptr %64, align 8
  %66 = getelementptr inbounds nuw i8, ptr %2, i64 32
  %67 = load float, ptr %66, align 4
  %68 = getelementptr inbounds nuw i8, ptr %2, i64 36
  %69 = load float, ptr %68, align 4
  %70 = getelementptr inbounds nuw i8, ptr %2, i64 40
  %71 = load float, ptr %70, align 4
  tail call void %65(i32 noundef %61, float noundef %67, float noundef %69, float noundef %71) #5
  br label %72

72:                                               ; preds = %63, %59
  %73 = load ptr, ptr %34, align 8
  %74 = tail call i32 %73(i32 noundef %7, ptr noundef nonnull @.str.27) #5
  %75 = icmp sgt i32 %74, -1
  br i1 %75, label %76, label %.thread

76:                                               ; preds = %72
  %77 = getelementptr inbounds nuw i8, ptr %0, i64 104
  %78 = load ptr, ptr %77, align 8
  %79 = getelementptr inbounds nuw i8, ptr %2, i64 48
  %80 = load float, ptr %79, align 4
  %81 = getelementptr inbounds nuw i8, ptr %2, i64 52
  %82 = load float, ptr %81, align 4
  %83 = getelementptr inbounds nuw i8, ptr %2, i64 56
  %84 = load float, ptr %83, align 4
  tail call void %78(i32 noundef %74, float noundef %80, float noundef %82, float noundef %84) #5
  br label %.thread

.thread:                                          ; preds = %21, %16, %72, %76, %31
  store ptr %2, ptr %12, align 8
  br label %85

85:                                               ; preds = %.thread, %10, %3
  ret void
}